  ExifToolVersion = 4.92
  FileName = ExifTool.jpg
  Directory = t
  FileSize = 3475
  FileType = JPEG
JPEG APP1 (2442 bytes):
    0000: 45 78 69 66 00 00 49 49 2a 00 08 00 00 00 09 00 [Exif..II*.......]
    0010: 0f 01 02 00 06 00 00 00 7a 00 00 00 10 01 02 00 [........z.......]
    0020: 18 00 00 00 80 00 00 00 12 01 03 00 01 00 00 00 [................]
    0030: 01 00 00 00 1a 01 05 00 01 00 00 00 98 00 00 00 [................]
    0040: 1b 01 05 00 01 00 00 00 a0 00 00 00 28 01 03 00 [............(...]
    0050: 01 00 00 00 02 00 00 00 32 01 02 00 14 00 00 00 [........2.......]
    0060: a8 00 00 00 13 02 03 00 01 00 00 00 01 00 00 00 [................]
    [snip 2330 bytes]
  + [IFD0 directory with 9 entries]
  | 0)  Make = Canon
  |     - Tag 0x010f (6 bytes, string[6]):
  |         007a: 43 61 6e 6f 6e 00                               [Canon.]
  | 1)  Model = Canon EOS DIGITAL REBEL
  |     - Tag 0x0110 (24 bytes, string[24]):
  |         0080: 43 61 6e 6f 6e 20 45 4f 53 20 44 49 47 49 54 41 [Canon EOS DIGITA]
  |         0090: 4c 20 52 45 42 45 4c 00                         [L REBEL.]
  | 2)  Orientation = 1
  |     - Tag 0x0112 (2 bytes, int16u[1]):
  |         002a: 01 00                                           [..]
  | 3)  XResolution = 180
  |     - Tag 0x011a (8 bytes, rational32u[1]):
  |         0098: b4 00 00 00 01 00 00 00                         [........]
  | 4)  YResolution = 180
  |     - Tag 0x011b (8 bytes, rational32u[1]):
  |         00a0: b4 00 00 00 01 00 00 00                         [........]
  | 5)  ResolutionUnit = 2
  |     - Tag 0x0128 (2 bytes, int16u[1]):
  |         004e: 02 00                                           [..]
  | 6)  ModifyDate = 2003:12:04 06:46:52
  |     - Tag 0x0132 (20 bytes, string[20]):
  |         00a8: 32 30 30 33 3a 31 32 3a 30 34 20 30 36 3a 34 36 [2003:12:04 06:46]
  |         00b8: 3a 35 32 00                                     [:52.]
  | 7)  YCbCrPositioning = 1
  |     - Tag 0x0213 (2 bytes, int16u[1]):
  |         0066: 01 00                                           [..]
  | 8)  ExifOffset (SubDirectory) -->
  |     - Tag 0x8769 (4 bytes, int32u[1]):
  |         0072: bc 00 00 00                                     [....]
  | + [ExifIFD directory with 31 entries]
  | | 0)  ExposureTime = 4
  | |     - Tag 0x829a (8 bytes, rational32u[1]):
  | |         0236: 04 00 00 00 01 00 00 00                         [........]
  | | 1)  FNumber = 14
  | |     - Tag 0x829d (8 bytes, rational32u[1]):
  | |         023e: 0e 00 00 00 01 00 00 00                         [........]
  | | 2)  ISO = 100
  | |     - Tag 0x8827 (2 bytes, int16u[1]):
  | |         00de: 64 00                                           [d.]
  | | 3)  ExifVersion = 0221
  | |     - Tag 0x9000 (4 bytes, undef[4]):
  | |         00ea: 30 32 32 31                                     [0221]
  | | 4)  DateTimeOriginal = 2003:12:04 06:46:52
  | |     - Tag 0x9003 (20 bytes, string[20]):
  | |         0246: 32 30 30 33 3a 31 32 3a 30 34 20 30 36 3a 34 36 [2003:12:04 06:46]
  | |         0256: 3a 35 32 00                                     [:52.]
  | | 5)  CreateDate = 2003:12:04 06:46:52
  | |     - Tag 0x9004 (20 bytes, string[20]):
  | |         025a: 32 30 30 33 3a 31 32 3a 30 34 20 30 36 3a 34 36 [2003:12:04 06:46]
  | |         026a: 3a 35 32 00                                     [:52.]
  | | 6)  ComponentsConfiguration = ...
  | |     - Tag 0x9101 (4 bytes, undef[4]):
  | |         010e: 01 02 03 00                                     [....]
  | | 7)  CompressedBitsPerPixel = 9
  | |     - Tag 0x9102 (8 bytes, rational32u[1]):
  | |         026e: 09 00 00 00 01 00 00 00                         [........]
  | | 8)  ShutterSpeedValue = -2.14748e+09
  | |     - Tag 0x9201 (8 bytes, rational32s[1]):
  | |         0276: 00 00 00 80 01 00 00 00                         [........]
  | | 9)  ApertureValue = 7.61472
  | |     - Tag 0x9202 (8 bytes, rational32u[1]):
  | |         027e: 5e 9d 07 00 00 00 01 00                         [^.......]
  | | 10) ExposureCompensation = 0
  | |     - Tag 0x9204 (8 bytes, rational32s[1]):
  | |         0286: 00 00 00 00 03 00 00 00                         [........]
  | | 11) MaxApertureValue = 4.33984
  | |     - Tag 0x9205 (8 bytes, rational32u[1]):
  | |         028e: 00 57 04 00 00 00 01 00                         [.W......]
  | | 12) MeteringMode = 1
  | |     - Tag 0x9207 (2 bytes, int16u[1]):
  | |         0156: 01 00                                           [..]
  | | 13) Flash = 0
  | |     - Tag 0x9209 (2 bytes, int16u[1]):
  | |         0162: 00 00                                           [..]
  | | 14) FocalLength = 34
  | |     - Tag 0x920a (8 bytes, rational32u[1]):
  | |         0296: 22 00 00 00 01 00 00 00                         [".......]
  | | 15) MakerNoteCanon (SubDirectory) -->
  | |     - Tag 0x927c (1432 bytes, undef[1432]):
  | |         029e: 1a 00 01 00 03 00 2e 00 00 00 dc 03 00 00 02 00 [................]
  | |         02ae: 03 00 04 00 00 00 38 04 00 00 03 00 03 00 04 00 [......8.........]
  | |         02be: 00 00 40 04 00 00 04 00 03 00 21 00 00 00 48 04 [..@.......!...H.]
  | |         02ce: 00 00 93 00 03 00 09 00 00 00 8a 04 00 00 06 00 [................]
  | |         02de: 02 00 20 00 00 00 9c 04 00 00 07 00 02 00 20 00 [.. ........... .]
  | |         [snip 1352 bytes]
  | | + [MakerNotes directory with 26 entries]
  | | | 0)  CanonCameraSettings (SubDirectory) -->
  | | |     - Tag 0x0001 (92 bytes, int16u[46]):
  | | |         03dc: 5c 00 00 00 00 00 04 00 00 00 01 00 00 00 03 00 [\...............]
  | | |         03ec: 00 00 02 00 00 00 01 00 ff ff 01 00 01 00 01 00 [................]
  | | |         03fc: 00 00 05 00 02 00 00 00 04 00 ff 7f ff ff 37 00 [..............7.]
  | | |         040c: 12 00 01 00 80 00 30 01 00 00 00 00 00 00 00 00 [......0.........]
  | | |         041c: ff ff ff ff ff ff 00 00 00 0c 00 0c 00 00 ff ff [................]
  | | |         042c: ff ff 00 00 00 00 ff 7f ff ff ff ff             [............]
  | | | + [BinaryData directory, 92 bytes]
  | | | | MacroMode = 0
  | | | | - Tag 0x0001 (2 bytes, int16s[1]):
  | | | |     03de: 00 00                                           [..]
  | | | | Self-timer = 0
  | | | | - Tag 0x0002 (2 bytes, int16s[1]):
  | | | |     03e0: 00 00                                           [..]
  | | | | Quality = 4
  | | | | - Tag 0x0003 (2 bytes, int16s[1]):
  | | | |     03e2: 04 00                                           [..]
  | | | | CanonFlashMode = 0
  | | | | - Tag 0x0004 (2 bytes, int16s[1]):
  | | | |     03e4: 00 00                                           [..]
  | | | | ContinuousDrive = 1
  | | | | - Tag 0x0005 (2 bytes, int16s[1]):
  | | | |     03e6: 01 00                                           [..]
  | | | | FocusMode = 3
  | | | | - Tag 0x0007 (2 bytes, int16s[1]):
  | | | |     03ea: 03 00                                           [..]
  | | | | CanonImageSize = 0
  | | | | - Tag 0x000a (2 bytes, int16s[1]):
  | | | |     03f0: 00 00                                           [..]
  | | | | EasyMode = 1
  | | | | - Tag 0x000b (2 bytes, int16s[1]):
  | | | |     03f2: 01 00                                           [..]
  | | | | DigitalZoom = -1
  | | | | - Tag 0x000c (2 bytes, int16s[1]):
  | | | |     03f4: ff ff                                           [..]
  | | | | Contrast = 1
  | | | | - Tag 0x000d (2 bytes, int16s[1]):
  | | | |     03f6: 01 00                                           [..]
  | | | | Saturation = 1
  | | | | - Tag 0x000e (2 bytes, int16s[1]):
  | | | |     03f8: 01 00                                           [..]
  | | | | Sharpness = 1
  | | | | - Tag 0x000f (2 bytes, int16s[1]):
  | | | |     03fa: 01 00                                           [..]
  | | | | CameraISO = 0
  | | | | - Tag 0x0010 (2 bytes, int16s[1]):
  | | | |     03fc: 00 00                                           [..]
  | | | | MeteringMode = 5
  | | | | - Tag 0x0011 (2 bytes, int16s[1]):
  | | | |     03fe: 05 00                                           [..]
  | | | | FocusType = 2
  | | | | - Tag 0x0012 (2 bytes, int16s[1]):
  | | | |     0400: 02 00                                           [..]
  | | | | AFPoint = 0
  | | | | - Tag 0x0013 (2 bytes, int16s[1]):
  | | | |     0402: 00 00                                           [..]
  | | | | CanonExposureMode = 4
  | | | | - Tag 0x0014 (2 bytes, int16s[1]):
  | | | |     0404: 04 00                                           [..]
  | | | | LensType = -1
  | | | | - Tag 0x0016 (2 bytes, int16s[1]):
  | | | |     0408: ff ff                                           [..]
  | | | | LongFocal = 55
  | | | | - Tag 0x0017 (2 bytes, int16s[1]):
  | | | |     040a: 37 00                                           [7.]
  | | | | ShortFocal = 18
  | | | | - Tag 0x0018 (2 bytes, int16s[1]):
  | | | |     040c: 12 00                                           [..]
  | | | | FocalUnits = 1
  | | | | - Tag 0x0019 (2 bytes, int16s[1]):
  | | | |     040e: 01 00                                           [..]
  | | | | FlashActivity = 0
  | | | | - Tag 0x001c (2 bytes, int16s[1]):
  | | | |     0414: 00 00                                           [..]
  | | | | FlashBits = 0
  | | | | - Tag 0x001d (2 bytes, int16s[1]):
  | | | |     0416: 00 00                                           [..]
  | | | | FocusContinuous = -1
  | | | | - Tag 0x0020 (2 bytes, int16s[1]):
  | | | |     041c: ff ff                                           [..]
  | | | | ZoomedResolution = 3072
  | | | | - Tag 0x0024 (2 bytes, int16s[1]):
  | | | |     0424: 00 0c                                           [..]
  | | | | ZoomedResolutionBase = 3072
  | | | | - Tag 0x0025 (2 bytes, int16s[1]):
  | | | |     0426: 00 0c                                           [..]
  | | | | ColorTone = 0
  | | | | - Tag 0x002a (2 bytes, int16s[1]):
  | | | |     0430: 00 00                                           [..]
  | | | 1)  CanonFocalLength (SubDirectory) -->
  | | |     - Tag 0x0002 (8 bytes, int16u[4]):
  | | |         0438: 00 00 22 00 92 03 62 02                         [.."...b.]
  | | | + [BinaryData directory, 8 bytes]
  | | | | FocalLength = 34
  | | | | - Tag 0x0001 (2 bytes, int16u[1]):
  | | | |     043a: 22 00                                           [".]
  | | | | FocalPlaneXSize = 914
  | | | | - Tag 0x0002 (2 bytes, int16u[1]):
  | | | |     043c: 92 03                                           [..]
  | | | | FocalPlaneYSize = 610
  | | | | - Tag 0x0003 (2 bytes, int16u[1]):
  | | | |     043e: 62 02                                           [b.]
  | | | 2)  Canon_0x0003 = 100 0 0 0
  | | |     - Tag 0x0003 (8 bytes, int16u[4]):
  | | |         0440: 64 00 00 00 00 00 00 00                         [d.......]
  | | | 3)  CanonShotInfo (SubDirectory) -->
  | | |     - Tag 0x0004 (66 bytes, int16u[33]):
  | | |         0448: 42 00 00 00 a0 00 38 ff f4 00 00 80 00 00 00 00 [B.....8.........]
  | | |         0458: 03 00 00 00 08 00 08 00 00 00 00 00 00 00 00 00 [................]
  | | |         0468: 00 00 00 00 01 00 ff ff 22 02 f4 00 20 ff 26 00 [........"... .&.]
  | | |         0478: 28 00 00 00 fc 00 00 00 ff ff 00 00 00 00 00 00 [(...............]
  | | |         0488: 00 00                                           [..]
  | | | + [BinaryData directory, 66 bytes]
  | | | | ISO = 160
  | | | | - Tag 0x0002 (2 bytes, int16s[1]):
  | | | |     044c: a0 00                                           [..]
  | | | | ExposureCompensation = 0
  | | | | - Tag 0x0006 (2 bytes, int16s[1]):
  | | | |     0454: 00 00                                           [..]
  | | | | WhiteBalance = 0
  | | | | - Tag 0x0007 (2 bytes, int16s[1]):
  | | | |     0456: 00 00                                           [..]
  | | | | SequenceNumber = 0
  | | | | - Tag 0x0009 (2 bytes, int16s[1]):
  | | | |     045a: 00 00                                           [..]
  | | | | IxusAFPoint = 0
  | | | | - Tag 0x000e (2 bytes, int16s[1]):
  | | | |     0464: 00 00                                           [..]
  | | | | FlashExposureComp = 0
  | | | | - Tag 0x000f (2 bytes, int16s[1]):
  | | | |     0466: 00 00                                           [..]
  | | | | AutoExposureBracketing = 0
  | | | | - Tag 0x0010 (2 bytes, int16s[1]):
  | | | |     0468: 00 00                                           [..]
  | | | | AEBBracketValue = 0
  | | | | - Tag 0x0011 (2 bytes, int16s[1]):
  | | | |     046a: 00 00                                           [..]
  | | | | FocusDistanceUpper = -1
  | | | | - Tag 0x0013 (2 bytes, int16s[1]):
  | | | |     046e: ff ff                                           [..]
  | | | | FocusDistanceLower = 546
  | | | | - Tag 0x0014 (2 bytes, int16s[1]):
  | | | |     0470: 22 02                                           [".]
  | | | | FNumber = 244
  | | | | - Tag 0x0015 (2 bytes, int16s[1]):
  | | | |     0472: f4 00                                           [..]
  | | | | ExposureTime = -224
  | | | | - Tag 0x0016 (2 bytes, int16s[1]):
  | | | |     0474: 20 ff                                           [ .]
  | | | | BulbDuration = 40
  | | | | - Tag 0x0018 (4 bytes, int32s[1]):
  | | | |     0478: 28 00 00 00                                     [(...]
  | | | | AutoRotate = 0
  | | | | - Tag 0x001b (2 bytes, int16s[1]):
  | | | |     047e: 00 00                                           [..]
  | | | | Self-timer2 = 0
  | | | | - Tag 0x001d (2 bytes, int16s[1]):
  | | | |     0482: 00 00                                           [..]
  | | | 4)  CanonFileInfo (SubDirectory) -->
  | | |     - Tag 0x0093 (18 bytes, int16u[9]):
  | | |         048a: 12 00 00 00 00 00 00 00 00 00 00 00 ff ff ff ff [................]
  | | |         049a: ff ff                                           [..]
  | | | + [BinaryData directory, 18 bytes]
  | | | 5)  CanonImageType = CRW:EOS DIGITAL REBEL CMOS RAW
  | | |     - Tag 0x0006 (32 bytes, string[32]):
  | | |         049c: 43 52 57 3a 45 4f 53 20 44 49 47 49 54 41 4c 20 [CRW:EOS DIGITAL ]
  | | |         04ac: 52 45 42 45 4c 20 43 4d 4f 53 20 52 41 57 00 00 [REBEL CMOS RAW..]
  | | | 6)  CanonFirmwareVersion = Firmware Version 1.1.1
  | | |     - Tag 0x0007 (32 bytes, string[32]):
  | | |         04bc: 46 69 72 6d 77 61 72 65 20 56 65 72 73 69 6f 6e [Firmware Version]
  | | |         04cc: 20 31 2e 31 2e 31 00 00 00 00 00 00 00 00 00 00 [ 1.1.1..........]
  | | | 7)  SerialNumber = 560018150
  | | |     - Tag 0x000c (4 bytes, int32u[1]):
  | | |         02fc: e6 32 61 21                                     [.2a!]
  | | | 8)  Canon_0x0015 = 2415919104
  | | |     - Tag 0x0015 (4 bytes, int32u[1]):
  | | |         0308: 00 00 00 90                                     [....]
  | | | 9)  FileNumber = 1181861
  | | |     - Tag 0x0008 (4 bytes, int32u[1]):
  | | |         0314: a5 08 12 00                                     [....]
  | | | 10) OwnerName = Cindy Harvey
  | | |     - Tag 0x0009 (32 bytes, string[32]):
  | | |         04dc: 43 69 6e 64 79 20 48 61 72 76 65 79 00 00 00 00 [Cindy Harvey....]
  | | |         04ec: 00 00 00 00 00 00 00 00 00 00 00 00 00 00 00 00 [................]
  | | | 11) Canon_0x0010 = 2147484016
  | | |     - Tag 0x0010 (4 bytes, int32u[1]):
  | | |         032c: 70 01 00 80                                     [p...]
  | | | 12) CanonFileLength = 4480822
  | | |     - Tag 0x000e (4 bytes, int32u[1]):
  | | |         0338: 36 5f 44 00                                     [6_D.]
  | | | 13) Canon_0x000d = 0 0 0 0 0 0 0 0 0 0 0 0 0 0 0 0 0 0 0 0 0 0 0 0 0 0 0 [snip]
  | | |     - Tag 0x000d (512 bytes, int8u[512]):
  | | |         04fc: 00 00 00 00 00 00 00 00 00 00 00 00 00 00 00 00 [................]
  | | |         050c: 00 00 00 00 00 00 00 00 00 00 00 00 00 00 00 00 [................]
  | | |         051c: 00 00 00 00 00 00 00 00 00 00 00 00 00 00 00 00 [................]
  | | |         052c: 00 00 00 00 00 00 00 00 00 00 00 00 00 00 00 00 [................]
  | | |         053c: 00 00 00 00 00 00 00 00 00 00 00 00 00 00 00 00 [................]
  | | |         [snip 432 bytes]
  | | | 14) Canon_0x0000 = 0 0 0 0 0 0 0 0 0 0 0 0 0 0 0 0 0 0
  | | |     - Tag 0x0000 (36 bytes, int16u[18]):
  | | |         06fc: 00 00 00 00 00 00 00 00 00 00 00 00 00 00 00 00 [................]
  | | |         070c: 00 00 00 00 00 00 00 00 00 00 00 00 00 00 00 00 [................]
  | | |         071c: 00 00 00 00                                     [....]
  | | | 15) Canon_0x00c0 = 26 331 372 372 177 240 428 429 277 186 510 511 442
  | | |     - Tag 0x00c0 (26 bytes, int16u[13]):
  | | |         0720: 1a 00 4b 01 74 01 74 01 b1 00 f0 00 ac 01 ad 01 [..K.t.t.........]
  | | |         0730: 15 01 ba 00 fe 01 ff 01 ba 01                   [..........]
  | | | 16) Canon_0x00c1 = 26 299 375 375 170 202 394 395 240 153 453 454 375
  | | |     - Tag 0x00c1 (26 bytes, int16u[13]):
  | | |         073a: 1a 00 2b 01 77 01 77 01 aa 00 ca 00 8a 01 8b 01 [..+.w.w.........]
  | | |         074a: f0 00 99 00 c5 01 c6 01 77 01                   [........w.]
  | | | 17) Canon_0x00aa = 10 998 1022 1026 808
  | | |     - Tag 0x00aa (10 bytes, int16u[5]):
  | | |         0754: 0a 00 e6 03 fe 03 02 04 28 03                   [........(.]
  | | | 18) Canon_0x00a8 = 20 5190 5190 7000 5987 3214 3897 6203 5190 5200
  | | |     - Tag 0x00a8 (20 bytes, int16u[10]):
  | | |         075e: 14 00 46 14 46 14 58 1b 63 17 8e 0c 39 0f 3b 18 [..F.F.X.c...9.;.]
  | | |         076e: 46 14 50 14                                     [F.P.]
  | | | 19) WhiteBalanceTable (SubDirectory) -->
  | | |     - Tag 0x00a9 (82 bytes, int16u[41]):
  | | |         0772: 52 00 b7 06 40 03 3f 03 de 03 ba 06 40 03 3f 03 [R...@.?.....@.?.]
  | | |         0782: dd 03 f3 07 40 03 3f 03 47 03 56 07 40 03 3f 03 [....@.?.G.V.@.?.]
  | | |         0792: 87 03 cc 04 91 03 90 03 84 06 e2 05 4a 03 49 03 [............J.I.]
  | | |         07a2: 65 05 8d 07 40 03 3f 03 7f 03 ba 06 40 03 3f 03 [e...@.?.....@.?.]
  | | |         07b2: dd 03 ba 06 40 03 3f 03 dc 03 7c 00 7b 00 7c 00 [....@.?...|.{.|.]
  | | |         07c2: 7b 00                                           [{.]
  | | | + [BinaryData directory, 82 bytes]
  | | | | RedBalanceAuto = 2.06611
  | | | | - Tag 0x0000 (4 bytes, rational16u[1]):
  | | | |     0774: b7 06 40 03                                     [..@.]
  | | | | BlueBalanceAuto = 0.839394
  | | | | - Tag 0x0001 (4 bytes, rational16u[1]):
  | | | |     0778: 3f 03 de 03                                     [?...]
  | | | | RedBalanceDaylight = 2.06971
  | | | | - Tag 0x0002 (4 bytes, rational16u[1]):
  | | | |     077c: ba 06 40 03                                     [..@.]
  | | | | BlueBalanceDaylight = 0.840243
  | | | | - Tag 0x0003 (4 bytes, rational16u[1]):
  | | | |     0780: 3f 03 dd 03                                     [?...]
  | | | | RedBalanceCloudy = 2.44591
  | | | | - Tag 0x0004 (4 bytes, rational16u[1]):
  | | | |     0784: f3 07 40 03                                     [..@.]
  | | | | BlueBalanceCloudy = 0.990465
  | | | | - Tag 0x0005 (4 bytes, rational16u[1]):
  | | | |     0788: 3f 03 47 03                                     [?.G.]
  | | | | RedBalanceTungsten = 2.25721
  | | | | - Tag 0x0006 (4 bytes, rational16u[1]):
  | | | |     078c: 56 07 40 03                                     [V.@.]
  | | | | BlueBalanceTungsten = 0.920266
  | | | | - Tag 0x0007 (4 bytes, rational16u[1]):
  | | | |     0790: 3f 03 87 03                                     [?...]
  | | | | RedBalanceFluorescent = 1.34502
  | | | | - Tag 0x0008 (4 bytes, rational16u[1]):
  | | | |     0794: cc 04 91 03                                     [....]
  | | | | BlueBalanceFluorescent = 0.546763
  | | | | - Tag 0x0009 (4 bytes, rational16u[1]):
  | | | |     0798: 90 03 84 06                                     [....]
  | | | | RedBalanceFlash = 1.7886
  | | | | - Tag 0x000a (4 bytes, rational16u[1]):
  | | | |     079c: e2 05 4a 03                                     [..J.]
  | | | | BlueBalanceFlash = 0.608979
  | | | | - Tag 0x000b (4 bytes, rational16u[1]):
  | | | |     07a0: 49 03 65 05                                     [I.e.]
  | | | | RedBalanceCustom = 2.32332
  | | | | - Tag 0x000c (4 bytes, rational16u[1]):
  | | | |     07a4: 8d 07 40 03                                     [..@.]
  | | | | BlueBalanceCustom = 0.928492
  | | | | - Tag 0x000d (4 bytes, rational16u[1]):
  | | | |     07a8: 3f 03 7f 03                                     [?...]
  | | | | RedBalanceB&W = 2.06971
  | | | | - Tag 0x000e (4 bytes, rational16u[1]):
  | | | |     07ac: ba 06 40 03                                     [..@.]
  | | | | BlueBalanceB&W = 0.840243
  | | | | - Tag 0x000f (4 bytes, rational16u[1]):
  | | | |     07b0: 3f 03 dd 03                                     [?...]
  | | | | RedBalanceShade = 2.06971
  | | | | - Tag 0x0010 (4 bytes, rational16u[1]):
  | | | |     07b4: ba 06 40 03                                     [..@.]
  | | | | BlueBalanceShade = 0.841093
  | | | | - Tag 0x0011 (4 bytes, rational16u[1]):
  | | | |     07b8: 3f 03 dc 03                                     [?...]
  | | | 20) ColorTemperature = 5200
  | | |     - Tag 0x00ae (2 bytes, int16u[1]):
  | | |         0398: 50 14                                           [P.]
  | | | 21) Canon_0x00b4 = 1
  | | |     - Tag 0x00b4 (2 bytes, int16u[1]):
  | | |         03a4: 01 00                                           [..]
  | | | 22) CanonPictureInfo (SubDirectory) -->
  | | |     - Tag 0x0012 (48 bytes, int16u[24]):
  | | |         07c4: 07 00 07 00 00 0c 00 08 00 0c 00 08 97 00 97 00 [................]
  | | |         07d4: f6 03 60 02 00 00 00 00 00 00 a0 fd 0a fc 00 00 [..`.............]
  | | |         07e4: 00 00 06 fe 00 00 fa 01 00 00 00 00 00 00 ff ff [................]
  | | | + [BinaryData directory, 48 bytes]
  | | | | CanonImageWidth = 3072
  | | | | - Tag 0x0002 (2 bytes, int16u[1]):
  | | | |     07c8: 00 0c                                           [..]
  | | | | CanonImageHeight = 2048
  | | | | - Tag 0x0003 (2 bytes, int16u[1]):
  | | | |     07ca: 00 08                                           [..]
  | | | | CanonImageWidthAsShot = 3072
  | | | | - Tag 0x0004 (2 bytes, int16u[1]):
  | | | |     07cc: 00 0c                                           [..]
  | | | | CanonImageHeightAsShot = 2048
  | | | | - Tag 0x0005 (2 bytes, int16u[1]):
  | | | |     07ce: 00 08                                           [..]
  | | | | AFPointsUsed = 0
  | | | | - Tag 0x0016 (2 bytes, int16u[1]):
  | | | |     07f0: 00 00                                           [..]
  | | | 23) Canon_0x0013 = 0 159 7 112
  | | |     - Tag 0x0013 (8 bytes, int16u[4]):
  | | |         07f4: 00 00 9f 00 07 00 70 00                         [......p.]
  | | | 24) Canon_0x00b5 = 10 3 1 2048 1360
  | | |     - Tag 0x00b5 (10 bytes, int16u[5]):
  | | |         07fc: 0a 00 03 00 01 00 00 08 50 05                   [........P.]
  | | | 25) Canon_0x0000 = 0 0 0 0 0 0 3072000 892 2048000 595 65540 262146
  | | |     - Tag 0x0000 (48 bytes, int32u[12]):
  | | |         0806: 00 00 00 00 00 00 00 00 00 00 00 00 00 00 00 00 [................]
  | | |         0816: 00 00 00 00 00 00 00 00 00 e0 2e 00 7c 03 00 00 [............|...]
  | | |         0826: 00 40 1f 00 53 02 00 00 04 00 01 00 02 00 04 00 [.@..S...........]
  | | 16) UserComment = 
  | |     - Tag 0x9286 (264 bytes, undef[264]):
  | |         0836: 00 00 00 00 00 00 00 00 00 00 00 00 00 00 00 00 [................]
  | |         0846: 00 00 00 00 00 00 00 00 00 00 00 00 00 00 00 00 [................]
  | |         0856: 00 00 00 00 00 00 00 00 00 00 00 00 00 00 00 00 [................]
  | |         0866: 00 00 00 00 00 00 00 00 00 00 00 00 00 00 00 00 [................]
  | |         0876: 00 00 00 00 00 00 00 00 00 00 00 00 00 00 00 00 [................]
  | |         [snip 184 bytes]
  | | 17) FlashpixVersion = 0100
  | |     - Tag 0xa000 (4 bytes, undef[4]):
  | |         0192: 30 31 30 30                                     [0100]
  | | 18) ColorSpace = 1
  | |     - Tag 0xa001 (2 bytes, int16u[1]):
  | |         019e: 01 00                                           [..]
  | | 19) ExifImageWidth = 160
  | |     - Tag 0xa002 (2 bytes, int16u[1]):
  | |         01aa: a0 00                                           [..]
  | | 20) ExifImageLength = 120
  | |     - Tag 0xa003 (2 bytes, int16u[1]):
  | |         01b6: 78 00                                           [x.]
  | | 21) InteropOffset (SubDirectory) -->
  | |     - Tag 0xa005 (4 bytes, int32u[1]):
  | |         01c2: 4e 09 00 00                                     [N...]
  | | + [InteropIFD directory with 4 entries]
  | | | 0)  InteropIndex = THM
  | | |     - Tag 0x0001 (4 bytes, string[4]):
  | | |         0958: 54 48 4d 00                                     [THM.]
  | | | 1)  InteropVersion = 0100
  | | |     - Tag 0x0002 (4 bytes, undef[4]):
  | | |         0964: 30 31 30 30                                     [0100]
  | | | 2)  RelatedImageWidth = 3072
  | | |     - Tag 0x1001 (2 bytes, int16u[1]):
  | | |         0970: 00 0c                                           [..]
  | | | 3)  RelatedImageLength = 2048
  | | |     - Tag 0x1002 (2 bytes, int16u[1]):
  | | |         097c: 00 08                                           [..]
  | | 22) FocalPlaneXResolution = 3443.95
  | |     - Tag 0xa20e (8 bytes, rational32u[1]):
  | |         093e: 00 e0 2e 00 7c 03 00 00                         [....|...]
  | | 23) FocalPlaneYResolution = 3442.02
  | |     - Tag 0xa20f (8 bytes, rational32u[1]):
  | |         0946: 00 40 1f 00 53 02 00 00                         [.@..S...]
  | | 24) FocalPlaneResolutionUnit = 2
  | |     - Tag 0xa210 (2 bytes, int16u[1]):
  | |         01e6: 02 00                                           [..]
  | | 25) SensingMethod = 2
  | |     - Tag 0xa217 (2 bytes, int16u[1]):
  | |         01f2: 02 00                                           [..]
  | | 26) FileSource = 3
  | |     - Tag 0xa300 (1 bytes, undef[1]):
  | |         01fe: 03                                              [.]
  | | 27) CustomRendered = 0
  | |     - Tag 0xa401 (2 bytes, int16u[1]):
  | |         020a: 00 00                                           [..]
  | | 28) ExposureMode = 1
  | |     - Tag 0xa402 (2 bytes, int16u[1]):
  | |         0216: 01 00                                           [..]
  | | 29) WhiteBalance = 0
  | |     - Tag 0xa403 (2 bytes, int16u[1]):
  | |         0222: 00 00                                           [..]
  | | 30) SceneCaptureType = 0
  | |     - Tag 0xa406 (2 bytes, int16u[1]):
  | |         022e: 00 00                                           [..]
JPEG DQT (130 bytes):
    0000: 00 03 02 02 03 02 02 03 03 02 03 03 03 03 04 05 [................]
    0010: 08 05 05 04 04 05 09 07 07 06 08 0b 0a 0c 0b 0b [................]
    0020: 0a 0b 0a 0c 0e 11 0f 0c 0d 11 0d 0d 0b 0f 15 0f [................]
    0030: 11 12 13 14 14 14 0c 0f 15 17 15 13 17 11 13 14 [................]
    0040: 13 01 03 03 03 05 04 05 09 05 05 09 13 0d 0b 0d [................]
    0050: 13 13 13 13 13 13 13 13 13 13 13 13 13 13 13 13 [................]
    0060: 13 13 13 13 13 13 13 13 13 13 13 13 13 13 13 13 [................]
    [snip 18 bytes]
JPEG SOF0:
  ImageWidth = 160
  ImageHeight = 120
JPEG DHT (416 bytes):
    0000: 00 00 01 05 01 01 01 01 01 01 00 00 00 00 00 00 [................]
    0010: 00 00 01 02 03 04 05 06 07 08 09 0a 0b 10 00 02 [................]
    0020: 01 03 03 02 04 03 05 05 04 04 00 00 01 7d 01 02 [.............}..]
    0030: 03 00 04 11 05 12 21 31 41 06 13 51 61 07 22 71 [......!1A..Qa."q]
    0040: 14 32 81 91 a1 08 23 42 b1 c1 15 52 d1 f0 24 33 [.2....#B...R..$3]
    0050: 62 72 82 09 0a 16 17 18 19 1a 25 26 27 28 29 2a [br........%&'()*]
    0060: 34 35 36 37 38 39 3a 43 44 45 46 47 48 49 4a 53 [456789:CDEFGHIJS]
    [snip 304 bytes]
JPEG SOS (end of parsing)
