  ExifToolVersion = 5.82
  FileName = ExifTool.jpg
  Directory = t/images
  FileSize = 3475
  FileModifyDate = 1113662230
  FileType = JPEG
  MIMEType = image/jpeg
JPEG APP1 (2442 bytes):
    0006: 45 78 69 66 00 00 49 49_2a 00 08 00 00 00 09 00 [Exif..II*.......]
    0016: 0f 01 02 00 06 00 00 00_7a 00 00 00 10 01 02 00 [........z.......]
    0026: 18 00 00 00 80 00 00 00_12 01 03 00 01 00 00 00 [................]
    0036: 01 00 00 00 1a 01 05 00_01 00 00 00 98 00 00 00 [................]
    0046: 1b 01 05 00 01 00 00 00_a0 00 00 00 28 01 03 00 [............(...]
    0056: 01 00 00 00 02 00 00 00_32 01 02 00 14 00 00 00 [........2.......]
    0066: a8 00 00 00 13 02 03 00_01 00 00 00 01 00 00 00 [................]
    [snip 2330 bytes]
  + [IFD0 directory with 9 entries]
  | 0)  Make = Canon
  |     - Tag 0x010f (6 bytes, string[6]):
  |         0086: 43 61 6e 6f 6e 00                               [Canon.]
  | 1)  Model = Canon EOS DIGITAL REBEL
  |     - Tag 0x0110 (24 bytes, string[24]):
  |         008c: 43 61 6e 6f 6e 20 45 4f_53 20 44 49 47 49 54 41 [Canon EOS DIGITA]
  |         009c: 4c 20 52 45 42 45 4c 00                         [L REBEL.]
  | 2)  Orientation = 1
  |     - Tag 0x0112 (2 bytes, int16u[1]):
  |         0036: 01 00                                           [..]
  | 3)  XResolution = 180
  |     - Tag 0x011a (8 bytes, rational32u[1]):
  |         00a4: b4 00 00 00 01 00 00 00                         [........]
  | 4)  YResolution = 180
  |     - Tag 0x011b (8 bytes, rational32u[1]):
  |         00ac: b4 00 00 00 01 00 00 00                         [........]
  | 5)  ResolutionUnit = 2
  |     - Tag 0x0128 (2 bytes, int16u[1]):
  |         005a: 02 00                                           [..]
  | 6)  ModifyDate = 2003:12:04 06:46:52
  |     - Tag 0x0132 (20 bytes, string[20]):
  |         00b4: 32 30 30 33 3a 31 32 3a_30 34 20 30 36 3a 34 36 [2003:12:04 06:46]
  |         00c4: 3a 35 32 00                                     [:52.]
  | 7)  YCbCrPositioning = 1
  |     - Tag 0x0213 (2 bytes, int16u[1]):
  |         0072: 01 00                                           [..]
  | 8)  ExifOffset (SubDirectory) -->
  |     - Tag 0x8769 (4 bytes, int32u[1]):
  |         007e: bc 00 00 00                                     [....]
  | + [ExifIFD directory with 31 entries]
  | | 0)  ExposureTime = 4
  | |     - Tag 0x829a (8 bytes, rational32u[1]):
  | |         0242: 04 00 00 00 01 00 00 00                         [........]
  | | 1)  FNumber = 14
  | |     - Tag 0x829d (8 bytes, rational32u[1]):
  | |         024a: 0e 00 00 00 01 00 00 00                         [........]
  | | 2)  ISO = 100
  | |     - Tag 0x8827 (2 bytes, int16u[1]):
  | |         00ea: 64 00                                           [d.]
  | | 3)  ExifVersion = 0221
  | |     - Tag 0x9000 (4 bytes, undef[4]):
  | |         00f6: 30 32 32 31                                     [0221]
  | | 4)  DateTimeOriginal = 2003:12:04 06:46:52
  | |     - Tag 0x9003 (20 bytes, string[20]):
  | |         0252: 32 30 30 33 3a 31 32 3a_30 34 20 30 36 3a 34 36 [2003:12:04 06:46]
  | |         0262: 3a 35 32 00                                     [:52.]
  | | 5)  CreateDate = 2003:12:04 06:46:52
  | |     - Tag 0x9004 (20 bytes, string[20]):
  | |         0266: 32 30 30 33 3a 31 32 3a_30 34 20 30 36 3a 34 36 [2003:12:04 06:46]
  | |         0276: 3a 35 32 00                                     [:52.]
  | | 6)  ComponentsConfiguration = ...
  | |     - Tag 0x9101 (4 bytes, undef[4]):
  | |         011a: 01 02 03 00                                     [....]
  | | 7)  CompressedBitsPerPixel = 9
  | |     - Tag 0x9102 (8 bytes, rational32u[1]):
  | |         027a: 09 00 00 00 01 00 00 00                         [........]
  | | 8)  ShutterSpeedValue = -2147484000
  | |     - Tag 0x9201 (8 bytes, rational32s[1]):
  | |         0282: 00 00 00 80 01 00 00 00                         [........]
  | | 9)  ApertureValue = 7.614716
  | |     - Tag 0x9202 (8 bytes, rational32u[1]):
  | |         028a: 5e 9d 07 00 00 00 01 00                         [^.......]
  | | 10) ExposureCompensation = 0
  | |     - Tag 0x9204 (8 bytes, rational32s[1]):
  | |         0292: 00 00 00 00 03 00 00 00                         [........]
  | | 11) MaxApertureValue = 4.339844
  | |     - Tag 0x9205 (8 bytes, rational32u[1]):
  | |         029a: 00 57 04 00 00 00 01 00                         [.W......]
  | | 12) MeteringMode = 1
  | |     - Tag 0x9207 (2 bytes, int16u[1]):
  | |         0162: 01 00                                           [..]
  | | 13) Flash = 0
  | |     - Tag 0x9209 (2 bytes, int16u[1]):
  | |         016e: 00 00                                           [..]
  | | 14) FocalLength = 34
  | |     - Tag 0x920a (8 bytes, rational32u[1]):
  | |         02a2: 22 00 00 00 01 00 00 00                         [".......]
  | | 15) MakerNoteCanon (SubDirectory) -->
  | |     - Tag 0x927c (1432 bytes, undef[1432]):
  | |         02aa: 1a 00 01 00 03 00 2e 00_00 00 dc 03 00 00 02 00 [................]
  | |         02ba: 03 00 04 00 00 00 38 04_00 00 03 00 03 00 04 00 [......8.........]
  | |         02ca: 00 00 40 04 00 00 04 00_03 00 21 00 00 00 48 04 [..@.......!...H.]
  | |         02da: 00 00 93 00 03 00 09 00_00 00 8a 04 00 00 06 00 [................]
  | |         02ea: 02 00 20 00 00 00 9c 04_00 00 07 00 02 00 20 00 [.. ........... .]
  | |         [snip 1352 bytes]
  | | + [MakerNotes directory with 26 entries]
  | | | 0)  CanonCameraSettings (SubDirectory) -->
  | | |     - Tag 0x0001 (92 bytes, int16u[46]):
  | | |         03e8: 5c 00 00 00 00 00 04 00_00 00 01 00 00 00 03 00 [\...............]
  | | |         03f8: 00 00 02 00 00 00 01 00_ff ff 01 00 01 00 01 00 [................]
  | | |         0408: 00 00 05 00 02 00 00 00_04 00 ff 7f ff ff 37 00 [..............7.]
  | | |         0418: 12 00 01 00 80 00 30 01_00 00 00 00 00 00 00 00 [......0.........]
  | | |         0428: ff ff ff ff ff ff 00 00_00 0c 00 0c 00 00 ff ff [................]
  | | |         0438: ff ff 00 00 00 00 ff 7f_ff ff ff ff             [............]
  | | | + [BinaryData directory, 92 bytes]
  | | | | MacroMode = 0
  | | | | - Tag 0x0001 (2 bytes, int16s[1]):
  | | | |     03de: 00 00                                           [..]
  | | | | Self-timer = 0
  | | | | - Tag 0x0002 (2 bytes, int16s[1]):
  | | | |     03e0: 00 00                                           [..]
  | | | | Quality = 4
  | | | | - Tag 0x0003 (2 bytes, int16s[1]):
  | | | |     03e2: 04 00                                           [..]
  | | | | CanonFlashMode = 0
  | | | | - Tag 0x0004 (2 bytes, int16s[1]):
  | | | |     03e4: 00 00                                           [..]
  | | | | ContinuousDrive = 1
  | | | | - Tag 0x0005 (2 bytes, int16s[1]):
  | | | |     03e6: 01 00                                           [..]
  | | | | FocusMode = 3
  | | | | - Tag 0x0007 (2 bytes, int16s[1]):
  | | | |     03ea: 03 00                                           [..]
  | | | | CanonImageSize = 0
  | | | | - Tag 0x000a (2 bytes, int16s[1]):
  | | | |     03f0: 00 00                                           [..]
  | | | | EasyMode = 1
  | | | | - Tag 0x000b (2 bytes, int16s[1]):
  | | | |     03f2: 01 00                                           [..]
  | | | | DigitalZoom = -1
  | | | | - Tag 0x000c (2 bytes, int16s[1]):
  | | | |     03f4: ff ff                                           [..]
  | | | | Contrast = 1
  | | | | - Tag 0x000d (2 bytes, int16s[1]):
  | | | |     03f6: 01 00                                           [..]
  | | | | Saturation = 1
  | | | | - Tag 0x000e (2 bytes, int16s[1]):
  | | | |     03f8: 01 00                                           [..]
  | | | | Sharpness = 1
  | | | | - Tag 0x000f (2 bytes, int16s[1]):
  | | | |     03fa: 01 00                                           [..]
  | | | | CameraISO = 0
  | | | | - Tag 0x0010 (2 bytes, int16s[1]):
  | | | |     03fc: 00 00                                           [..]
  | | | | MeteringMode = 5
  | | | | - Tag 0x0011 (2 bytes, int16s[1]):
  | | | |     03fe: 05 00                                           [..]
  | | | | FocusType = 2
  | | | | - Tag 0x0012 (2 bytes, int16s[1]):
  | | | |     0400: 02 00                                           [..]
  | | | | AFPoint = 0
  | | | | - Tag 0x0013 (2 bytes, int16s[1]):
  | | | |     0402: 00 00                                           [..]
  | | | | CanonExposureMode = 4
  | | | | - Tag 0x0014 (2 bytes, int16s[1]):
  | | | |     0404: 04 00                                           [..]
  | | | | LensType = -1
  | | | | - Tag 0x0016 (2 bytes, int16s[1]):
  | | | |     0408: ff ff                                           [..]
  | | | | LongFocal = 55
  | | | | - Tag 0x0017 (2 bytes, int16s[1]):
  | | | |     040a: 37 00                                           [7.]
  | | | | ShortFocal = 18
  | | | | - Tag 0x0018 (2 bytes, int16s[1]):
  | | | |     040c: 12 00                                           [..]
  | | | | FocalUnits = 1
  | | | | - Tag 0x0019 (2 bytes, int16s[1]):
  | | | |     040e: 01 00                                           [..]
  | | | | MaxAperture = 128
  | | | | - Tag 0x001a (2 bytes, int16s[1]):
  | | | |     0410: 80 00                                           [..]
  | | | | FlashActivity = 0
  | | | | - Tag 0x001c (2 bytes, int16s[1]):
  | | | |     0414: 00 00                                           [..]
  | | | | FlashBits = 0
  | | | | - Tag 0x001d (2 bytes, int16s[1]):
  | | | |     0416: 00 00                                           [..]
  | | | | FocusContinuous = -1
  | | | | - Tag 0x0020 (2 bytes, int16s[1]):
  | | | |     041c: ff ff                                           [..]
  | | | | ZoomedResolution = 3072
  | | | | - Tag 0x0024 (2 bytes, int16s[1]):
  | | | |     0424: 00 0c                                           [..]
  | | | | ZoomedResolutionBase = 3072
  | | | | - Tag 0x0025 (2 bytes, int16s[1]):
  | | | |     0426: 00 0c                                           [..]
  | | | | ColorTone = 0
  | | | | - Tag 0x002a (2 bytes, int16s[1]):
  | | | |     0430: 00 00                                           [..]
  | | | 1)  CanonFocalLength (SubDirectory) -->
  | | |     - Tag 0x0002 (8 bytes, int16u[4]):
  | | |         0444: 00 00 22 00 92 03 62 02                         [.."...b.]
  | | | + [BinaryData directory, 8 bytes]
  | | | | FocalLength = 34
  | | | | - Tag 0x0001 (2 bytes, int16u[1]):
  | | | |     043a: 22 00                                           [".]
  | | | | FocalPlaneXSize = 914
  | | | | - Tag 0x0002 (2 bytes, int16u[1]):
  | | | |     043c: 92 03                                           [..]
  | | | | FocalPlaneYSize = 610
  | | | | - Tag 0x0003 (2 bytes, int16u[1]):
  | | | |     043e: 62 02                                           [b.]
  | | | 2)  Canon_0x0003 = 100 0 0 0
  | | |     - Tag 0x0003 (8 bytes, int16u[4]):
  | | |         044c: 64 00 00 00 00 00 00 00                         [d.......]
  | | | 3)  CanonShotInfo (SubDirectory) -->
  | | |     - Tag 0x0004 (66 bytes, int16u[33]):
  | | |         0454: 42 00 00 00 a0 00 38 ff_f4 00 00 80 00 00 00 00 [B.....8.........]
  | | |         0464: 03 00 00 00 08 00 08 00_00 00 00 00 00 00 00 00 [................]
  | | |         0474: 00 00 00 00 01 00 ff ff_22 02 f4 00 20 ff 26 00 [........"... .&.]
  | | |         0484: 28 00 00 00 fc 00 00 00_ff ff 00 00 00 00 00 00 [(...............]
  | | |         0494: 00 00                                           [..]
  | | | + [BinaryData directory, 66 bytes]
  | | | | ISO = 160
  | | | | - Tag 0x0002 (2 bytes, int16s[1]):
  | | | |     044c: a0 00                                           [..]
  | | | | TargetAperture = 244
  | | | | - Tag 0x0004 (2 bytes, int16s[1]):
  | | | |     0450: f4 00                                           [..]
  | | | | TargetExposureTime = -32768
  | | | | - Tag 0x0005 (2 bytes, int16s[1]):
  | | | |     0452: 00 80                                           [..]
  | | | | ExposureCompensation = 0
  | | | | - Tag 0x0006 (2 bytes, int16s[1]):
  | | | |     0454: 00 00                                           [..]
  | | | | WhiteBalance = 0
  | | | | - Tag 0x0007 (2 bytes, int16s[1]):
  | | | |     0456: 00 00                                           [..]
  | | | | SequenceNumber = 0
  | | | | - Tag 0x0009 (2 bytes, int16s[1]):
  | | | |     045a: 00 00                                           [..]
  | | | | IxusAFPoint = 0
  | | | | - Tag 0x000e (2 bytes, int16s[1]):
  | | | |     0464: 00 00                                           [..]
  | | | | FlashExposureComp = 0
  | | | | - Tag 0x000f (2 bytes, int16s[1]):
  | | | |     0466: 00 00                                           [..]
  | | | | AutoExposureBracketing = 0
  | | | | - Tag 0x0010 (2 bytes, int16s[1]):
  | | | |     0468: 00 00                                           [..]
  | | | | AEBBracketValue = 0
  | | | | - Tag 0x0011 (2 bytes, int16s[1]):
  | | | |     046a: 00 00                                           [..]
  | | | | FocusDistanceUpper = -1
  | | | | - Tag 0x0013 (2 bytes, int16s[1]):
  | | | |     046e: ff ff                                           [..]
  | | | | FocusDistanceLower = 546
  | | | | - Tag 0x0014 (2 bytes, int16s[1]):
  | | | |     0470: 22 02                                           [".]
  | | | | FNumber = 244
  | | | | - Tag 0x0015 (2 bytes, int16s[1]):
  | | | |     0472: f4 00                                           [..]
  | | | | ExposureTime = -224
  | | | | - Tag 0x0016 (2 bytes, int16s[1]):
  | | | |     0474: 20 ff                                           [ .]
  | | | | BulbDuration = 40
  | | | | - Tag 0x0018 (4 bytes, int32s[1]):
  | | | |     0478: 28 00 00 00                                     [(...]
  | | | | AutoRotate = 0
  | | | | - Tag 0x001b (2 bytes, int16s[1]):
  | | | |     047e: 00 00                                           [..]
  | | | | Self-timer2 = 0
  | | | | - Tag 0x001d (2 bytes, int16s[1]):
  | | | |     0482: 00 00                                           [..]
  | | | 4)  CanonFileInfo (SubDirectory) -->
  | | |     - Tag 0x0093 (18 bytes, int16u[9]):
  | | |         0496: 12 00 00 00 00 00 00 00_00 00 00 00 ff ff ff ff [................]
  | | |         04a6: ff ff                                           [..]
  | | | + [BinaryData directory, 18 bytes]
  | | | 5)  CanonImageType = CRW:EOS DIGITAL REBEL CMOS RAW
  | | |     - Tag 0x0006 (32 bytes, string[32]):
  | | |         04a8: 43 52 57 3a 45 4f 53 20_44 49 47 49 54 41 4c 20 [CRW:EOS DIGITAL ]
  | | |         04b8: 52 45 42 45 4c 20 43 4d_4f 53 20 52 41 57 00 00 [REBEL CMOS RAW..]
  | | | 6)  CanonFirmwareVersion = Firmware Version 1.1.1
  | | |     - Tag 0x0007 (32 bytes, string[32]):
  | | |         04c8: 46 69 72 6d 77 61 72 65_20 56 65 72 73 69 6f 6e [Firmware Version]
  | | |         04d8: 20 31 2e 31 2e 31 00 00_00 00 00 00 00 00 00 00 [ 1.1.1..........]
  | | | 7)  SerialNumber = 560018150
  | | |     - Tag 0x000c (4 bytes, int32u[1]):
  | | |         0308: e6 32 61 21                                     [.2a!]
  | | | 8)  Canon_0x0015 = 2415919104
  | | |     - Tag 0x0015 (4 bytes, int32u[1]):
  | | |         0314: 00 00 00 90                                     [....]
  | | | 9)  FileNumber = 1181861
  | | |     - Tag 0x0008 (4 bytes, int32u[1]):
  | | |         0320: a5 08 12 00                                     [....]
  | | | 10) OwnerName = Phil Harvey
  | | |     - Tag 0x0009 (32 bytes, string[32]):
  | | |         04e8: 50 68 69 6c 20 48 61 72_76 65 79 00 00 00 00 00 [Phil Harvey.....]
  | | |         04f8: 00 00 00 00 00 00 00 00_00 00 00 00 00 00 00 00 [................]
  | | | 11) Canon_0x0010 = 2147484016
  | | |     - Tag 0x0010 (4 bytes, int32u[1]):
  | | |         0338: 70 01 00 80                                     [p...]
  | | | 12) CanonFileLength = 4480822
  | | |     - Tag 0x000e (4 bytes, int32u[1]):
  | | |         0344: 36 5f 44 00                                     [6_D.]
  | | | 13) Canon_0x000d = 0 0 0 0 0 0 0 0 0 0 0 0 0 0 0 0 0 0 0 0 0 0 0 0 0 0 0 [snip]
  | | |     - Tag 0x000d (512 bytes, int8u[512]):
  | | |         0508: 00 00 00 00 00 00 00 00_00 00 00 00 00 00 00 00 [................]
  | | |         0518: 00 00 00 00 00 00 00 00_00 00 00 00 00 00 00 00 [................]
  | | |         0528: 00 00 00 00 00 00 00 00_00 00 00 00 00 00 00 00 [................]
  | | |         0538: 00 00 00 00 00 00 00 00_00 00 00 00 00 00 00 00 [................]
  | | |         0548: 00 00 00 00 00 00 00 00_00 00 00 00 00 00 00 00 [................]
  | | |         [snip 432 bytes]
  | | | 14) Canon_0x0000 = 0 0 0 0 0 0 0 0 0 0 0 0 0 0 0 0 0 0
  | | |     - Tag 0x0000 (36 bytes, int16u[18]):
  | | |         0708: 00 00 00 00 00 00 00 00_00 00 00 00 00 00 00 00 [................]
  | | |         0718: 00 00 00 00 00 00 00 00_00 00 00 00 00 00 00 00 [................]
  | | |         0728: 00 00 00 00                                     [....]
  | | | 15) Canon_0x00c0 = 26 331 372 372 177 240 428 429 277 186 510 511 442
  | | |     - Tag 0x00c0 (26 bytes, int16u[13]):
  | | |         072c: 1a 00 4b 01 74 01 74 01_b1 00 f0 00 ac 01 ad 01 [..K.t.t.........]
  | | |         073c: 15 01 ba 00 fe 01 ff 01_ba 01                   [..........]
  | | | 16) Canon_0x00c1 = 26 299 375 375 170 202 394 395 240 153 453 454 375
  | | |     - Tag 0x00c1 (26 bytes, int16u[13]):
  | | |         0746: 1a 00 2b 01 77 01 77 01_aa 00 ca 00 8a 01 8b 01 [..+.w.w.........]
  | | |         0756: f0 00 99 00 c5 01 c6 01_77 01                   [........w.]
  | | | 17) Canon_0x00aa = 10 998 1022 1026 808
  | | |     - Tag 0x00aa (10 bytes, int16u[5]):
  | | |         0760: 0a 00 e6 03 fe 03 02 04_28 03                   [........(.]
  | | | 18) Canon_0x00a8 = 20 5190 5190 7000 5987 3214 3897 6203 5190 5200
  | | |     - Tag 0x00a8 (20 bytes, int16u[10]):
  | | |         076a: 14 00 46 14 46 14 58 1b_63 17 8e 0c 39 0f 3b 18 [..F.F.X.c...9.;.]
  | | |         077a: 46 14 50 14                                     [F.P.]
  | | | 19) WhiteBalanceTable (SubDirectory) -->
  | | |     - Tag 0x00a9 (82 bytes, int16u[41]):
  | | |         077e: 52 00 b7 06 40 03 3f 03_de 03 ba 06 40 03 3f 03 [R...@.?.....@.?.]
  | | |         078e: dd 03 f3 07 40 03 3f 03_47 03 56 07 40 03 3f 03 [....@.?.G.V.@.?.]
  | | |         079e: 87 03 cc 04 91 03 90 03_84 06 e2 05 4a 03 49 03 [............J.I.]
  | | |         07ae: 65 05 8d 07 40 03 3f 03_7f 03 ba 06 40 03 3f 03 [e...@.?.....@.?.]
  | | |         07be: dd 03 ba 06 40 03 3f 03_dc 03 7c 00 7b 00 7c 00 [....@.?...|.{.|.]
  | | |         07ce: 7b 00                                           [{.]
  | | | + [BinaryData directory, 82 bytes]
  | | | | RedBalanceAuto = 2.066106
  | | | | - Tag 0x0000 (4 bytes, rational16u[1]):
  | | | |     0774: b7 06 40 03                                     [..@.]
  | | | | BlueBalanceAuto = 0.8393939
  | | | | - Tag 0x0001 (4 bytes, rational16u[1]):
  | | | |     0778: 3f 03 de 03                                     [?...]
  | | | | RedBalanceDaylight = 2.069712
  | | | | - Tag 0x0002 (4 bytes, rational16u[1]):
  | | | |     077c: ba 06 40 03                                     [..@.]
  | | | | BlueBalanceDaylight = 0.8402427
  | | | | - Tag 0x0003 (4 bytes, rational16u[1]):
  | | | |     0780: 3f 03 dd 03                                     [?...]
  | | | | RedBalanceCloudy = 2.445913
  | | | | - Tag 0x0004 (4 bytes, rational16u[1]):
  | | | |     0784: f3 07 40 03                                     [..@.]
  | | | | BlueBalanceCloudy = 0.9904648
  | | | | - Tag 0x0005 (4 bytes, rational16u[1]):
  | | | |     0788: 3f 03 47 03                                     [?.G.]
  | | | | RedBalanceTungsten = 2.257212
  | | | | - Tag 0x0006 (4 bytes, rational16u[1]):
  | | | |     078c: 56 07 40 03                                     [V.@.]
  | | | | BlueBalanceTungsten = 0.9202658
  | | | | - Tag 0x0007 (4 bytes, rational16u[1]):
  | | | |     0790: 3f 03 87 03                                     [?...]
  | | | | RedBalanceFluorescent = 1.345016
  | | | | - Tag 0x0008 (4 bytes, rational16u[1]):
  | | | |     0794: cc 04 91 03                                     [....]
  | | | | BlueBalanceFluorescent = 0.5467626
  | | | | - Tag 0x0009 (4 bytes, rational16u[1]):
  | | | |     0798: 90 03 84 06                                     [....]
  | | | | RedBalanceFlash = 1.788599
  | | | | - Tag 0x000a (4 bytes, rational16u[1]):
  | | | |     079c: e2 05 4a 03                                     [..J.]
  | | | | BlueBalanceFlash = 0.608979
  | | | | - Tag 0x000b (4 bytes, rational16u[1]):
  | | | |     07a0: 49 03 65 05                                     [I.e.]
  | | | | RedBalanceCustom = 2.323317
  | | | | - Tag 0x000c (4 bytes, rational16u[1]):
  | | | |     07a4: 8d 07 40 03                                     [..@.]
  | | | | BlueBalanceCustom = 0.9284916
  | | | | - Tag 0x000d (4 bytes, rational16u[1]):
  | | | |     07a8: 3f 03 7f 03                                     [?...]
  | | | | RedBalanceB&W = 2.069712
  | | | | - Tag 0x000e (4 bytes, rational16u[1]):
  | | | |     07ac: ba 06 40 03                                     [..@.]
  | | | | BlueBalanceB&W = 0.8402427
  | | | | - Tag 0x000f (4 bytes, rational16u[1]):
  | | | |     07b0: 3f 03 dd 03                                     [?...]
  | | | | RedBalanceShade = 2.069712
  | | | | - Tag 0x0010 (4 bytes, rational16u[1]):
  | | | |     07b4: ba 06 40 03                                     [..@.]
  | | | | BlueBalanceShade = 0.8410931
  | | | | - Tag 0x0011 (4 bytes, rational16u[1]):
  | | | |     07b8: 3f 03 dc 03                                     [?...]
  | | | 20) ColorTemperature = 5200
  | | |     - Tag 0x00ae (2 bytes, int16u[1]):
  | | |         03a4: 50 14                                           [P.]
  | | | 21) Canon_0x00b4 = 1
  | | |     - Tag 0x00b4 (2 bytes, int16u[1]):
  | | |         03b0: 01 00                                           [..]
  | | | 22) CanonPictureInfo (SubDirectory) -->
  | | |     - Tag 0x0012 (48 bytes, int16u[24]):
  | | |         07d0: 07 00 07 00 00 0c 00 08_00 0c 00 08 97 00 97 00 [................]
  | | |         07e0: f6 03 60 02 00 00 00 00_00 00 a0 fd 0a fc 00 00 [..`.............]
  | | |         07f0: 00 00 06 fe 00 00 fa 01_00 00 00 00 00 00 ff ff [................]
  | | | + [BinaryData directory, 48 bytes]
  | | | | CanonImageWidth = 3072
  | | | | - Tag 0x0002 (2 bytes, int16u[1]):
  | | | |     07c8: 00 0c                                           [..]
  | | | | CanonImageHeight = 2048
  | | | | - Tag 0x0003 (2 bytes, int16u[1]):
  | | | |     07ca: 00 08                                           [..]
  | | | | CanonImageWidthAsShot = 3072
  | | | | - Tag 0x0004 (2 bytes, int16u[1]):
  | | | |     07cc: 00 0c                                           [..]
  | | | | CanonImageHeightAsShot = 2048
  | | | | - Tag 0x0005 (2 bytes, int16u[1]):
  | | | |     07ce: 00 08                                           [..]
  | | | | AFPointsUsed = 0
  | | | | - Tag 0x0016 (2 bytes, int16u[1]):
  | | | |     07f0: 00 00                                           [..]
  | | | 23) Canon_0x0013 = 0 159 7 112
  | | |     - Tag 0x0013 (8 bytes, int16u[4]):
  | | |         0800: 00 00 9f 00 07 00 70 00                         [......p.]
  | | | 24) Canon_0x00b5 = 10 3 1 2048 1360
  | | |     - Tag 0x00b5 (10 bytes, int16u[5]):
  | | |         0808: 0a 00 03 00 01 00 00 08_50 05                   [........P.]
  | | | 25) Canon_0x0000 = 0 0 0 0 0 0 3072000 892 2048000 595 65540 262146
  | | |     - Tag 0x0000 (48 bytes, int32u[12]):
  | | |         0812: 00 00 00 00 00 00 00 00_00 00 00 00 00 00 00 00 [................]
  | | |         0822: 00 00 00 00 00 00 00 00_00 e0 2e 00 7c 03 00 00 [............|...]
  | | |         0832: 00 40 1f 00 53 02 00 00_04 00 01 00 02 00 04 00 [.@..S...........]
  | | 16) UserComment = 
  | |     - Tag 0x9286 (264 bytes, undef[264]):
  | |         0842: 00 00 00 00 00 00 00 00_00 00 00 00 00 00 00 00 [................]
  | |         0852: 00 00 00 00 00 00 00 00_00 00 00 00 00 00 00 00 [................]
  | |         0862: 00 00 00 00 00 00 00 00_00 00 00 00 00 00 00 00 [................]
  | |         0872: 00 00 00 00 00 00 00 00_00 00 00 00 00 00 00 00 [................]
  | |         0882: 00 00 00 00 00 00 00 00_00 00 00 00 00 00 00 00 [................]
  | |         [snip 184 bytes]
  | | 17) FlashpixVersion = 0100
  | |     - Tag 0xa000 (4 bytes, undef[4]):
  | |         019e: 30 31 30 30                                     [0100]
  | | 18) ColorSpace = 1
  | |     - Tag 0xa001 (2 bytes, int16u[1]):
  | |         01aa: 01 00                                           [..]
  | | 19) ExifImageWidth = 160
  | |     - Tag 0xa002 (2 bytes, int16u[1]):
  | |         01b6: a0 00                                           [..]
  | | 20) ExifImageLength = 120
  | |     - Tag 0xa003 (2 bytes, int16u[1]):
  | |         01c2: 78 00                                           [x.]
  | | 21) InteropOffset (SubDirectory) -->
  | |     - Tag 0xa005 (4 bytes, int32u[1]):
  | |         01ce: 4e 09 00 00                                     [N...]
  | | + [InteropIFD directory with 4 entries]
  | | | 0)  InteropIndex = THM
  | | |     - Tag 0x0001 (4 bytes, string[4]):
  | | |         0964: 54 48 4d 00                                     [THM.]
  | | | 1)  InteropVersion = 0100
  | | |     - Tag 0x0002 (4 bytes, undef[4]):
  | | |         0970: 30 31 30 30                                     [0100]
  | | | 2)  RelatedImageWidth = 3072
  | | |     - Tag 0x1001 (2 bytes, int16u[1]):
  | | |         097c: 00 0c                                           [..]
  | | | 3)  RelatedImageLength = 2048
  | | |     - Tag 0x1002 (2 bytes, int16u[1]):
  | | |         0988: 00 08                                           [..]
  | | 22) FocalPlaneXResolution = 3443.946
  | |     - Tag 0xa20e (8 bytes, rational32u[1]):
  | |         094a: 00 e0 2e 00 7c 03 00 00                         [....|...]
  | | 23) FocalPlaneYResolution = 3442.017
  | |     - Tag 0xa20f (8 bytes, rational32u[1]):
  | |         0952: 00 40 1f 00 53 02 00 00                         [.@..S...]
  | | 24) FocalPlaneResolutionUnit = 2
  | |     - Tag 0xa210 (2 bytes, int16u[1]):
  | |         01f2: 02 00                                           [..]
  | | 25) SensingMethod = 2
  | |     - Tag 0xa217 (2 bytes, int16u[1]):
  | |         01fe: 02 00                                           [..]
  | | 26) FileSource = 3
  | |     - Tag 0xa300 (1 bytes, undef[1]):
  | |         020a: 03                                              [.]
  | | 27) CustomRendered = 0
  | |     - Tag 0xa401 (2 bytes, int16u[1]):
  | |         0216: 00 00                                           [..]
  | | 28) ExposureMode = 1
  | |     - Tag 0xa402 (2 bytes, int16u[1]):
  | |         0222: 01 00                                           [..]
  | | 29) WhiteBalance = 0
  | |     - Tag 0xa403 (2 bytes, int16u[1]):
  | |         022e: 00 00                                           [..]
  | | 30) SceneCaptureType = 0
  | |     - Tag 0xa406 (2 bytes, int16u[1]):
  | |         023a: 00 00                                           [..]
JPEG DQT (130 bytes):
    0994: 00 03 02 02 03 02 02 03_03 02 03 03 03 03 04 05 [................]
    09a4: 08 05 05 04 04 05 09 07_07 06 08 0b 0a 0c 0b 0b [................]
    09b4: 0a 0b 0a 0c 0e 11 0f 0c_0d 11 0d 0d 0b 0f 15 0f [................]
    09c4: 11 12 13 14 14 14 0c 0f_15 17 15 13 17 11 13 14 [................]
    09d4: 13 01 03 03 03 05 04 05_09 05 05 09 13 0d 0b 0d [................]
    09e4: 13 13 13 13 13 13 13 13_13 13 13 13 13 13 13 13 [................]
    09f4: 13 13 13 13 13 13 13 13_13 13 13 13 13 13 13 13 [................]
    [snip 18 bytes]
JPEG SOF0:
  ImageWidth = 160
  ImageHeight = 120
JPEG DHT (416 bytes):
    0a2d: 00 00 01 05 01 01 01 01_01 01 00 00 00 00 00 00 [................]
    0a3d: 00 00 01 02 03 04 05 06_07 08 09 0a 0b 10 00 02 [................]
    0a4d: 01 03 03 02 04 03 05 05_04 04 00 00 01 7d 01 02 [.............}..]
    0a5d: 03 00 04 11 05 12 21 31_41 06 13 51 61 07 22 71 [......!1A..Qa."q]
    0a6d: 14 32 81 91 a1 08 23 42_b1 c1 15 52 d1 f0 24 33 [.2....#B...R..$3]
    0a7d: 62 72 82 09 0a 16 17 18_19 1a 25 26 27 28 29 2a [br........%&'()*]
    0a8d: 34 35 36 37 38 39 3a 43_44 45 46 47 48 49 4a 53 [456789:CDEFGHIJS]
    [snip 304 bytes]
JPEG SOS (end of parsing)
